; generated by Component: ARM Compiler 5.06 update 6 (build 750) Tool: ArmCC [4d3637]
; commandline ArmCC [--list --split_sections --debug -c --asm --interleave -o.\isp\obj\ivt_test.o --asm_dir=.\Listings\ --list_dir=.\Listings\ --depend=.\isp\obj\ivt_test.d --cpu=Cortex-M3 --apcs=interwork -O0 --diag_suppress=9931 -I.\stm32f2xx_hal\Inc -I.\ISP\Src -I.\RTE\_ISP -IC:\Keil_v5\ARM\PACK\ARM\CMSIS\5.5.1\CMSIS\Core\Include -IC:\Keil_v5\ARM\PACK\Keil\STM32F2xx_DFP\2.10.0\Drivers\CMSIS\Device\ST\STM32F2xx\Include -D__UVISION_VERSION=528 -D_RTE_ -DSTM32F207xx --omf_browse=.\isp\obj\ivt_test.crf ISP\Src\IVT_Test.c]
                          THUMB

                          AREA ||i.ADC_IRQHandler||, CODE, READONLY, ALIGN=2

                  ADC_IRQHandler PROC
;;;75     }
;;;76     void ADC_IRQHandler(void)
000000  b510              PUSH     {r4,lr}
;;;77     {
;;;78         printf("ADC_IRQHandler");
000002  a002              ADR      r0,|L1.12|
000004  f7fffffe          BL       __2printf
;;;79     }
000008  bd10              POP      {r4,pc}
;;;80     void CAN1_TX_IRQHandler(void)
                          ENDP

00000a  0000              DCW      0x0000
                  |L1.12|
00000c  4144435f          DCB      "ADC_IRQHandler",0
000010  49525148
000014  616e646c
000018  657200  
00001b  00                DCB      0

                          AREA ||i.CAN1_RX0_IRQHandler||, CODE, READONLY, ALIGN=2

                  CAN1_RX0_IRQHandler PROC
;;;83     }
;;;84     void CAN1_RX0_IRQHandler(void)
000000  b510              PUSH     {r4,lr}
;;;85     {
;;;86         printf("CAN1_RX0_IRQHandler");
000002  a002              ADR      r0,|L2.12|
000004  f7fffffe          BL       __2printf
;;;87     }
000008  bd10              POP      {r4,pc}
;;;88     void CAN1_RX1_IRQHandler(void)
                          ENDP

00000a  0000              DCW      0x0000
                  |L2.12|
00000c  43414e31          DCB      "CAN1_RX0_IRQHandler",0
000010  5f525830
000014  5f495251
000018  48616e64
00001c  6c657200

                          AREA ||i.CAN1_RX1_IRQHandler||, CODE, READONLY, ALIGN=2

                  CAN1_RX1_IRQHandler PROC
;;;87     }
;;;88     void CAN1_RX1_IRQHandler(void)
000000  b510              PUSH     {r4,lr}
;;;89     {
;;;90         printf("CAN1_RX1_IRQHandler");
000002  a002              ADR      r0,|L3.12|
000004  f7fffffe          BL       __2printf
;;;91     }
000008  bd10              POP      {r4,pc}
;;;92     void CAN1_SCE_IRQHandler(void)
                          ENDP

00000a  0000              DCW      0x0000
                  |L3.12|
00000c  43414e31          DCB      "CAN1_RX1_IRQHandler",0
000010  5f525831
000014  5f495251
000018  48616e64
00001c  6c657200

                          AREA ||i.CAN1_SCE_IRQHandler||, CODE, READONLY, ALIGN=2

                  CAN1_SCE_IRQHandler PROC
;;;91     }
;;;92     void CAN1_SCE_IRQHandler(void)
000000  b510              PUSH     {r4,lr}
;;;93     {
;;;94         printf("CAN1_SCE_IRQHandler");
000002  a002              ADR      r0,|L4.12|
000004  f7fffffe          BL       __2printf
;;;95     }
000008  bd10              POP      {r4,pc}
;;;96     void EXTI9_5_IRQHandler(void)
                          ENDP

00000a  0000              DCW      0x0000
                  |L4.12|
00000c  43414e31          DCB      "CAN1_SCE_IRQHandler",0
000010  5f534345
000014  5f495251
000018  48616e64
00001c  6c657200

                          AREA ||i.CAN1_TX_IRQHandler||, CODE, READONLY, ALIGN=2

                  CAN1_TX_IRQHandler PROC
;;;79     }
;;;80     void CAN1_TX_IRQHandler(void)
000000  b510              PUSH     {r4,lr}
;;;81     {
;;;82         printf("CAN1_TX_IRQHandler");
000002  a002              ADR      r0,|L5.12|
000004  f7fffffe          BL       __2printf
;;;83     }
000008  bd10              POP      {r4,pc}
;;;84     void CAN1_RX0_IRQHandler(void)
                          ENDP

00000a  0000              DCW      0x0000
                  |L5.12|
00000c  43414e31          DCB      "CAN1_TX_IRQHandler",0
000010  5f54585f
000014  49525148
000018  616e646c
00001c  657200  
00001f  00                DCB      0

                          AREA ||i.CAN2_RX0_IRQHandler||, CODE, READONLY, ALIGN=2

                  CAN2_RX0_IRQHandler PROC
;;;255    }
;;;256    void CAN2_RX0_IRQHandler(void)
000000  b510              PUSH     {r4,lr}
;;;257    {
;;;258        printf("CAN2_RX0_IRQHandler");
000002  a002              ADR      r0,|L6.12|
000004  f7fffffe          BL       __2printf
;;;259    }
000008  bd10              POP      {r4,pc}
;;;260    void CAN2_RX1_IRQHandler(void)
                          ENDP

00000a  0000              DCW      0x0000
                  |L6.12|
00000c  43414e32          DCB      "CAN2_RX0_IRQHandler",0
000010  5f525830
000014  5f495251
000018  48616e64
00001c  6c657200

                          AREA ||i.CAN2_RX1_IRQHandler||, CODE, READONLY, ALIGN=2

                  CAN2_RX1_IRQHandler PROC
;;;259    }
;;;260    void CAN2_RX1_IRQHandler(void)
000000  b510              PUSH     {r4,lr}
;;;261    {
;;;262        printf("CAN2_RX1_IRQHandler");
000002  a002              ADR      r0,|L7.12|
000004  f7fffffe          BL       __2printf
;;;263    }
000008  bd10              POP      {r4,pc}
;;;264    void CAN2_SCE_IRQHandler(void)
                          ENDP

00000a  0000              DCW      0x0000
                  |L7.12|
00000c  43414e32          DCB      "CAN2_RX1_IRQHandler",0
000010  5f525831
000014  5f495251
000018  48616e64
00001c  6c657200

                          AREA ||i.CAN2_SCE_IRQHandler||, CODE, READONLY, ALIGN=2

                  CAN2_SCE_IRQHandler PROC
;;;263    }
;;;264    void CAN2_SCE_IRQHandler(void)
000000  b510              PUSH     {r4,lr}
;;;265    {
;;;266        printf("CAN2_SCE_IRQHandler");
000002  a002              ADR      r0,|L8.12|
000004  f7fffffe          BL       __2printf
;;;267    }
000008  bd10              POP      {r4,pc}
;;;268    void OTG_FS_IRQHandler(void)
                          ENDP

00000a  0000              DCW      0x0000
                  |L8.12|
00000c  43414e32          DCB      "CAN2_SCE_IRQHandler",0
000010  5f534345
000014  5f495251
000018  48616e64
00001c  6c657200

                          AREA ||i.CAN2_TX_IRQHandler||, CODE, READONLY, ALIGN=2

                  CAN2_TX_IRQHandler PROC
;;;251    }
;;;252    void CAN2_TX_IRQHandler(void)
000000  b510              PUSH     {r4,lr}
;;;253    {
;;;254        printf("CAN2_TX_IRQHandler");
000002  a002              ADR      r0,|L9.12|
000004  f7fffffe          BL       __2printf
;;;255    }
000008  bd10              POP      {r4,pc}
;;;256    void CAN2_RX0_IRQHandler(void)
                          ENDP

00000a  0000              DCW      0x0000
                  |L9.12|
00000c  43414e32          DCB      "CAN2_TX_IRQHandler",0
000010  5f54585f
000014  49525148
000018  616e646c
00001c  657200  
00001f  00                DCB      0

                          AREA ||i.DCMI_IRQHandler||, CODE, READONLY, ALIGN=2

                  DCMI_IRQHandler PROC
;;;311    }
;;;312    void DCMI_IRQHandler(void)
000000  b510              PUSH     {r4,lr}
;;;313    {
;;;314        printf("DCMI_IRQHandler");
000002  a002              ADR      r0,|L10.12|
000004  f7fffffe          BL       __2printf
;;;315    }
000008  bd10              POP      {r4,pc}
;;;316    void HASH_RNG_IRQHandler(void)
                          ENDP

00000a  0000              DCW      0x0000
                  |L10.12|
00000c  44434d49          DCB      "DCMI_IRQHandler",0
000010  5f495251
000014  48616e64
000018  6c657200

                          AREA ||i.DMA1_Stream0_IRQHandler||, CODE, READONLY, ALIGN=2

                  DMA1_Stream0_IRQHandler PROC
;;;47     }
;;;48     void DMA1_Stream0_IRQHandler(void)
000000  b510              PUSH     {r4,lr}
;;;49     {
;;;50         printf("DMA1_Stream0_IRQHandler");
000002  a002              ADR      r0,|L11.12|
000004  f7fffffe          BL       __2printf
;;;51     }
000008  bd10              POP      {r4,pc}
;;;52     void DMA1_Stream1_IRQHandler(void)
                          ENDP

00000a  0000              DCW      0x0000
                  |L11.12|
00000c  444d4131          DCB      "DMA1_Stream0_IRQHandler",0
000010  5f537472
000014  65616d30
000018  5f495251
00001c  48616e64
000020  6c657200

                          AREA ||i.DMA1_Stream1_IRQHandler||, CODE, READONLY, ALIGN=2

                  DMA1_Stream1_IRQHandler PROC
;;;51     }
;;;52     void DMA1_Stream1_IRQHandler(void)
000000  b510              PUSH     {r4,lr}
;;;53     {
;;;54         printf("DMA1_Stream1_IRQHandler");
000002  a002              ADR      r0,|L12.12|
000004  f7fffffe          BL       __2printf
;;;55     }
000008  bd10              POP      {r4,pc}
;;;56     void DMA1_Stream2_IRQHandler(void)
                          ENDP

00000a  0000              DCW      0x0000
                  |L12.12|
00000c  444d4131          DCB      "DMA1_Stream1_IRQHandler",0
000010  5f537472
000014  65616d31
000018  5f495251
00001c  48616e64
000020  6c657200

                          AREA ||i.DMA1_Stream2_IRQHandler||, CODE, READONLY, ALIGN=2

                  DMA1_Stream2_IRQHandler PROC
;;;55     }
;;;56     void DMA1_Stream2_IRQHandler(void)
000000  b510              PUSH     {r4,lr}
;;;57     {
;;;58         printf("DMA1_Stream2_IRQHandler");
000002  a002              ADR      r0,|L13.12|
000004  f7fffffe          BL       __2printf
;;;59     }
000008  bd10              POP      {r4,pc}
;;;60     void DMA1_Stream3_IRQHandler(void)
                          ENDP

00000a  0000              DCW      0x0000
                  |L13.12|
00000c  444d4131          DCB      "DMA1_Stream2_IRQHandler",0
000010  5f537472
000014  65616d32
000018  5f495251
00001c  48616e64
000020  6c657200

                          AREA ||i.DMA1_Stream3_IRQHandler||, CODE, READONLY, ALIGN=2

                  DMA1_Stream3_IRQHandler PROC
;;;59     }
;;;60     void DMA1_Stream3_IRQHandler(void)
000000  b510              PUSH     {r4,lr}
;;;61     {
;;;62         printf("DMA1_Stream3_IRQHandler");
000002  a002              ADR      r0,|L14.12|
000004  f7fffffe          BL       __2printf
;;;63     }
000008  bd10              POP      {r4,pc}
;;;64     void DMA1_Stream4_IRQHandler(void)
                          ENDP

00000a  0000              DCW      0x0000
                  |L14.12|
00000c  444d4131          DCB      "DMA1_Stream3_IRQHandler",0
000010  5f537472
000014  65616d33
000018  5f495251
00001c  48616e64
000020  6c657200

                          AREA ||i.DMA1_Stream4_IRQHandler||, CODE, READONLY, ALIGN=2

                  DMA1_Stream4_IRQHandler PROC
;;;63     }
;;;64     void DMA1_Stream4_IRQHandler(void)
000000  b510              PUSH     {r4,lr}
;;;65     {
;;;66         printf("DMA1_Stream4_IRQHandler");
000002  a002              ADR      r0,|L15.12|
000004  f7fffffe          BL       __2printf
;;;67     }
000008  bd10              POP      {r4,pc}
;;;68     void DMA1_Stream5_IRQHandler(void)
                          ENDP

00000a  0000              DCW      0x0000
                  |L15.12|
00000c  444d4131          DCB      "DMA1_Stream4_IRQHandler",0
000010  5f537472
000014  65616d34
000018  5f495251
00001c  48616e64
000020  6c657200

                          AREA ||i.DMA1_Stream5_IRQHandler||, CODE, READONLY, ALIGN=2

                  DMA1_Stream5_IRQHandler PROC
;;;67     }
;;;68     void DMA1_Stream5_IRQHandler(void)
000000  b510              PUSH     {r4,lr}
;;;69     {
;;;70         printf("DMA1_Stream5_IRQHandler");
000002  a002              ADR      r0,|L16.12|
000004  f7fffffe          BL       __2printf
;;;71     }
000008  bd10              POP      {r4,pc}
;;;72     void DMA1_Stream6_IRQHandler(void)
                          ENDP

00000a  0000              DCW      0x0000
                  |L16.12|
00000c  444d4131          DCB      "DMA1_Stream5_IRQHandler",0
000010  5f537472
000014  65616d35
000018  5f495251
00001c  48616e64
000020  6c657200

                          AREA ||i.DMA1_Stream6_IRQHandler||, CODE, READONLY, ALIGN=2

                  DMA1_Stream6_IRQHandler PROC
;;;71     }
;;;72     void DMA1_Stream6_IRQHandler(void)
000000  b510              PUSH     {r4,lr}
;;;73     {
;;;74         printf("DMA1_Stream6_IRQHandler");
000002  a002              ADR      r0,|L17.12|
000004  f7fffffe          BL       __2printf
;;;75     }
000008  bd10              POP      {r4,pc}
;;;76     void ADC_IRQHandler(void)
                          ENDP

00000a  0000              DCW      0x0000
                  |L17.12|
00000c  444d4131          DCB      "DMA1_Stream6_IRQHandler",0
000010  5f537472
000014  65616d36
000018  5f495251
00001c  48616e64
000020  6c657200

                          AREA ||i.DMA1_Stream7_IRQHandler||, CODE, READONLY, ALIGN=2

                  DMA1_Stream7_IRQHandler PROC
;;;187    }
;;;188    void DMA1_Stream7_IRQHandler(void)
000000  b510              PUSH     {r4,lr}
;;;189    {
;;;190        printf("DMA1_Stream7_IRQHandler");
000002  a002              ADR      r0,|L18.12|
000004  f7fffffe          BL       __2printf
;;;191    }
000008  bd10              POP      {r4,pc}
;;;192    void FSMC_IRQHandler(void)
                          ENDP

00000a  0000              DCW      0x0000
                  |L18.12|
00000c  444d4131          DCB      "DMA1_Stream7_IRQHandler",0
000010  5f537472
000014  65616d37
000018  5f495251
00001c  48616e64
000020  6c657200

                          AREA ||i.DMA2_Stream0_IRQHandler||, CODE, READONLY, ALIGN=2

                  DMA2_Stream0_IRQHandler PROC
;;;223    }
;;;224    void DMA2_Stream0_IRQHandler(void)
000000  b510              PUSH     {r4,lr}
;;;225    {
;;;226        printf("DMA2_Stream0_IRQHandler");
000002  a002              ADR      r0,|L19.12|
000004  f7fffffe          BL       __2printf
;;;227    }
000008  bd10              POP      {r4,pc}
;;;228    void DMA2_Stream1_IRQHandler(void)
                          ENDP

00000a  0000              DCW      0x0000
                  |L19.12|
00000c  444d4132          DCB      "DMA2_Stream0_IRQHandler",0
000010  5f537472
000014  65616d30
000018  5f495251
00001c  48616e64
000020  6c657200

                          AREA ||i.DMA2_Stream1_IRQHandler||, CODE, READONLY, ALIGN=2

                  DMA2_Stream1_IRQHandler PROC
;;;227    }
;;;228    void DMA2_Stream1_IRQHandler(void)
000000  b510              PUSH     {r4,lr}
;;;229    {
;;;230        printf("DMA2_Stream1_IRQHandler");
000002  a002              ADR      r0,|L20.12|
000004  f7fffffe          BL       __2printf
;;;231    }
000008  bd10              POP      {r4,pc}
;;;232    void DMA2_Stream2_IRQHandler(void)
                          ENDP

00000a  0000              DCW      0x0000
                  |L20.12|
00000c  444d4132          DCB      "DMA2_Stream1_IRQHandler",0
000010  5f537472
000014  65616d31
000018  5f495251
00001c  48616e64
000020  6c657200

                          AREA ||i.DMA2_Stream2_IRQHandler||, CODE, READONLY, ALIGN=2

                  DMA2_Stream2_IRQHandler PROC
;;;231    }
;;;232    void DMA2_Stream2_IRQHandler(void)
000000  b510              PUSH     {r4,lr}
;;;233    {
;;;234        printf("DMA2_Stream2_IRQHandler");
000002  a002              ADR      r0,|L21.12|
000004  f7fffffe          BL       __2printf
;;;235    }
000008  bd10              POP      {r4,pc}
;;;236    void DMA2_Stream3_IRQHandler(void)
                          ENDP

00000a  0000              DCW      0x0000
                  |L21.12|
00000c  444d4132          DCB      "DMA2_Stream2_IRQHandler",0
000010  5f537472
000014  65616d32
000018  5f495251
00001c  48616e64
000020  6c657200

                          AREA ||i.DMA2_Stream3_IRQHandler||, CODE, READONLY, ALIGN=2

                  DMA2_Stream3_IRQHandler PROC
;;;235    }
;;;236    void DMA2_Stream3_IRQHandler(void)
000000  b510              PUSH     {r4,lr}
;;;237    {
;;;238        printf("DMA2_Stream3_IRQHandler");
000002  a002              ADR      r0,|L22.12|
000004  f7fffffe          BL       __2printf
;;;239    }
000008  bd10              POP      {r4,pc}
;;;240    void DMA2_Stream4_IRQHandler(void)
                          ENDP

00000a  0000              DCW      0x0000
                  |L22.12|
00000c  444d4132          DCB      "DMA2_Stream3_IRQHandler",0
000010  5f537472
000014  65616d33
000018  5f495251
00001c  48616e64
000020  6c657200

                          AREA ||i.DMA2_Stream4_IRQHandler||, CODE, READONLY, ALIGN=2

                  DMA2_Stream4_IRQHandler PROC
;;;239    }
;;;240    void DMA2_Stream4_IRQHandler(void)
000000  b510              PUSH     {r4,lr}
;;;241    {
;;;242        printf("DMA2_Stream4_IRQHandler");
000002  a002              ADR      r0,|L23.12|
000004  f7fffffe          BL       __2printf
;;;243    }
000008  bd10              POP      {r4,pc}
;;;244    void ETH_IRQHandler(void)
                          ENDP

00000a  0000              DCW      0x0000
                  |L23.12|
00000c  444d4132          DCB      "DMA2_Stream4_IRQHandler",0
000010  5f537472
000014  65616d34
000018  5f495251
00001c  48616e64
000020  6c657200

                          AREA ||i.DMA2_Stream5_IRQHandler||, CODE, READONLY, ALIGN=2

                  DMA2_Stream5_IRQHandler PROC
;;;271    }
;;;272    void DMA2_Stream5_IRQHandler(void)
000000  b510              PUSH     {r4,lr}
;;;273    {
;;;274        printf("DMA2_Stream5_IRQHandler");
000002  a002              ADR      r0,|L24.12|
000004  f7fffffe          BL       __2printf
;;;275    }
000008  bd10              POP      {r4,pc}
;;;276    void DMA2_Stream6_IRQHandler(void)
                          ENDP

00000a  0000              DCW      0x0000
                  |L24.12|
00000c  444d4132          DCB      "DMA2_Stream5_IRQHandler",0
000010  5f537472
000014  65616d35
000018  5f495251
00001c  48616e64
000020  6c657200

                          AREA ||i.DMA2_Stream6_IRQHandler||, CODE, READONLY, ALIGN=2

                  DMA2_Stream6_IRQHandler PROC
;;;275    }
;;;276    void DMA2_Stream6_IRQHandler(void)
000000  b510              PUSH     {r4,lr}
;;;277    {
;;;278        printf("DMA2_Stream6_IRQHandler");
000002  a002              ADR      r0,|L25.12|
000004  f7fffffe          BL       __2printf
;;;279    }
000008  bd10              POP      {r4,pc}
;;;280    void DMA2_Stream7_IRQHandler(void)
                          ENDP

00000a  0000              DCW      0x0000
                  |L25.12|
00000c  444d4132          DCB      "DMA2_Stream6_IRQHandler",0
000010  5f537472
000014  65616d36
000018  5f495251
00001c  48616e64
000020  6c657200

                          AREA ||i.DMA2_Stream7_IRQHandler||, CODE, READONLY, ALIGN=2

                  DMA2_Stream7_IRQHandler PROC
;;;279    }
;;;280    void DMA2_Stream7_IRQHandler(void)
000000  b510              PUSH     {r4,lr}
;;;281    {
;;;282        printf("DMA2_Stream7_IRQHandler");
000002  a002              ADR      r0,|L26.12|
000004  f7fffffe          BL       __2printf
;;;283    }
000008  bd10              POP      {r4,pc}
;;;284    void USART6_IRQHandler(void)
                          ENDP

00000a  0000              DCW      0x0000
                  |L26.12|
00000c  444d4132          DCB      "DMA2_Stream7_IRQHandler",0
000010  5f537472
000014  65616d37
000018  5f495251
00001c  48616e64
000020  6c657200

                          AREA ||i.ETH_IRQHandler||, CODE, READONLY, ALIGN=2

                  ETH_IRQHandler PROC
;;;243    }
;;;244    void ETH_IRQHandler(void)
000000  b510              PUSH     {r4,lr}
;;;245    {
;;;246        printf("ETH_IRQHandler");
000002  a002              ADR      r0,|L27.12|
000004  f7fffffe          BL       __2printf
;;;247    }
000008  bd10              POP      {r4,pc}
;;;248    void ETH_WKUP_IRQHandler(void)
                          ENDP

00000a  0000              DCW      0x0000
                  |L27.12|
00000c  4554485f          DCB      "ETH_IRQHandler",0
000010  49525148
000014  616e646c
000018  657200  
00001b  00                DCB      0

                          AREA ||i.ETH_WKUP_IRQHandler||, CODE, READONLY, ALIGN=2

                  ETH_WKUP_IRQHandler PROC
;;;247    }
;;;248    void ETH_WKUP_IRQHandler(void)
000000  b510              PUSH     {r4,lr}
;;;249    {
;;;250        printf("ETH_WKUP_IRQHandler");
000002  a002              ADR      r0,|L28.12|
000004  f7fffffe          BL       __2printf
;;;251    }
000008  bd10              POP      {r4,pc}
;;;252    void CAN2_TX_IRQHandler(void)
                          ENDP

00000a  0000              DCW      0x0000
                  |L28.12|
00000c  4554485f          DCB      "ETH_WKUP_IRQHandler",0
000010  574b5550
000014  5f495251
000018  48616e64
00001c  6c657200

                          AREA ||i.EXTI0_IRQHandler||, CODE, READONLY, ALIGN=2

                  EXTI0_IRQHandler PROC
;;;27     }
;;;28     void EXTI0_IRQHandler(void)
000000  b510              PUSH     {r4,lr}
;;;29     {
;;;30         printf("EXTI0_IRQHandler");
000002  a002              ADR      r0,|L29.12|
000004  f7fffffe          BL       __2printf
;;;31     }
000008  bd10              POP      {r4,pc}
;;;32     void EXTI1_IRQHandler(void)
                          ENDP

00000a  0000              DCW      0x0000
                  |L29.12|
00000c  45585449          DCB      "EXTI0_IRQHandler",0
000010  305f4952
000014  5148616e
000018  646c6572
00001c  00      
00001d  00                DCB      0
00001e  00                DCB      0
00001f  00                DCB      0

                          AREA ||i.EXTI15_10_IRQHandler||, CODE, READONLY, ALIGN=2

                  EXTI15_10_IRQHandler PROC
;;;159    }
;;;160    void EXTI15_10_IRQHandler(void)
000000  b510              PUSH     {r4,lr}
;;;161    {
;;;162        printf("EXTI15_10_IRQHandler");
000002  a002              ADR      r0,|L30.12|
000004  f7fffffe          BL       __2printf
;;;163    }
000008  bd10              POP      {r4,pc}
;;;164    void RTC_Alarm_IRQHandler(void)
                          ENDP

00000a  0000              DCW      0x0000
                  |L30.12|
00000c  45585449          DCB      "EXTI15_10_IRQHandler",0
000010  31355f31
000014  305f4952
000018  5148616e
00001c  646c6572
000020  00      
000021  00                DCB      0
000022  00                DCB      0
000023  00                DCB      0

                          AREA ||i.EXTI1_IRQHandler||, CODE, READONLY, ALIGN=2

                  EXTI1_IRQHandler PROC
;;;31     }
;;;32     void EXTI1_IRQHandler(void)
000000  b510              PUSH     {r4,lr}
;;;33     {
;;;34         printf("EXTI1_IRQHandler");
000002  a002              ADR      r0,|L31.12|
000004  f7fffffe          BL       __2printf
;;;35     }
000008  bd10              POP      {r4,pc}
;;;36     void EXTI2_IRQHandler(void)
                          ENDP

00000a  0000              DCW      0x0000
                  |L31.12|
00000c  45585449          DCB      "EXTI1_IRQHandler",0
000010  315f4952
000014  5148616e
000018  646c6572
00001c  00      
00001d  00                DCB      0
00001e  00                DCB      0
00001f  00                DCB      0

                          AREA ||i.EXTI2_IRQHandler||, CODE, READONLY, ALIGN=2

                  EXTI2_IRQHandler PROC
;;;35     }
;;;36     void EXTI2_IRQHandler(void)
000000  b510              PUSH     {r4,lr}
;;;37     {
;;;38         printf("EXTI2_IRQHandler");
000002  a002              ADR      r0,|L32.12|
000004  f7fffffe          BL       __2printf
;;;39     }
000008  bd10              POP      {r4,pc}
;;;40     void EXTI3_IRQHandler(void)
                          ENDP

00000a  0000              DCW      0x0000
                  |L32.12|
00000c  45585449          DCB      "EXTI2_IRQHandler",0
000010  325f4952
000014  5148616e
000018  646c6572
00001c  00      
00001d  00                DCB      0
00001e  00                DCB      0
00001f  00                DCB      0

                          AREA ||i.EXTI3_IRQHandler||, CODE, READONLY, ALIGN=2

                  EXTI3_IRQHandler PROC
;;;39     }
;;;40     void EXTI3_IRQHandler(void)
000000  b510              PUSH     {r4,lr}
;;;41     {
;;;42         printf("EXTI3_IRQHandler");
000002  a002              ADR      r0,|L33.12|
000004  f7fffffe          BL       __2printf
;;;43     }
000008  bd10              POP      {r4,pc}
;;;44     void EXTI4_IRQHandler(void)
                          ENDP

00000a  0000              DCW      0x0000
                  |L33.12|
00000c  45585449          DCB      "EXTI3_IRQHandler",0
000010  335f4952
000014  5148616e
000018  646c6572
00001c  00      
00001d  00                DCB      0
00001e  00                DCB      0
00001f  00                DCB      0

                          AREA ||i.EXTI4_IRQHandler||, CODE, READONLY, ALIGN=2

                  EXTI4_IRQHandler PROC
;;;43     }
;;;44     void EXTI4_IRQHandler(void)
000000  b510              PUSH     {r4,lr}
;;;45     {
;;;46         printf("EXTI4_IRQHandler");
000002  a002              ADR      r0,|L34.12|
000004  f7fffffe          BL       __2printf
;;;47     }
000008  bd10              POP      {r4,pc}
;;;48     void DMA1_Stream0_IRQHandler(void)
                          ENDP

00000a  0000              DCW      0x0000
                  |L34.12|
00000c  45585449          DCB      "EXTI4_IRQHandler",0
000010  345f4952
000014  5148616e
000018  646c6572
00001c  00      
00001d  00                DCB      0
00001e  00                DCB      0
00001f  00                DCB      0

                          AREA ||i.EXTI9_5_IRQHandler||, CODE, READONLY, ALIGN=2

                  EXTI9_5_IRQHandler PROC
;;;95     }
;;;96     void EXTI9_5_IRQHandler(void)
000000  b510              PUSH     {r4,lr}
;;;97     {
;;;98         printf("EXTI9_5_IRQHandler");
000002  a002              ADR      r0,|L35.12|
000004  f7fffffe          BL       __2printf
;;;99     }
000008  bd10              POP      {r4,pc}
;;;100    void TIM1_BRK_TIM9_IRQHandler(void)
                          ENDP

00000a  0000              DCW      0x0000
                  |L35.12|
00000c  45585449          DCB      "EXTI9_5_IRQHandler",0
000010  395f355f
000014  49525148
000018  616e646c
00001c  657200  
00001f  00                DCB      0

                          AREA ||i.FLASH_IRQHandler||, CODE, READONLY, ALIGN=2

                  FLASH_IRQHandler PROC
;;;19     }
;;;20     void FLASH_IRQHandler(void)
000000  b510              PUSH     {r4,lr}
;;;21     {
;;;22         printf("FLASH_IRQHandler");
000002  a002              ADR      r0,|L36.12|
000004  f7fffffe          BL       __2printf
;;;23     }
000008  bd10              POP      {r4,pc}
;;;24     void RCC_IRQHandler(void)
                          ENDP

00000a  0000              DCW      0x0000
                  |L36.12|
00000c  464c4153          DCB      "FLASH_IRQHandler",0
000010  485f4952
000014  5148616e
000018  646c6572
00001c  00      
00001d  00                DCB      0
00001e  00                DCB      0
00001f  00                DCB      0

                          AREA ||i.FSMC_IRQHandler||, CODE, READONLY, ALIGN=2

                  FSMC_IRQHandler PROC
;;;191    }
;;;192    void FSMC_IRQHandler(void)
000000  b510              PUSH     {r4,lr}
;;;193    {
;;;194        printf("FSMC_IRQHandler");
000002  a002              ADR      r0,|L37.12|
000004  f7fffffe          BL       __2printf
;;;195    }
000008  bd10              POP      {r4,pc}
;;;196    void SDIO_IRQHandler(void)
                          ENDP

00000a  0000              DCW      0x0000
                  |L37.12|
00000c  46534d43          DCB      "FSMC_IRQHandler",0
000010  5f495251
000014  48616e64
000018  6c657200

                          AREA ||i.HASH_RNG_IRQHandler||, CODE, READONLY, ALIGN=2

                  HASH_RNG_IRQHandler PROC
;;;315    }
;;;316    void HASH_RNG_IRQHandler(void)
000000  b510              PUSH     {r4,lr}
;;;317    {
;;;318        printf("HASH_RNG_IRQHandler");
000002  a002              ADR      r0,|L38.12|
000004  f7fffffe          BL       __2printf
;;;319    }
000008  bd10              POP      {r4,pc}
                          ENDP

00000a  0000              DCW      0x0000
                  |L38.12|
00000c  48415348          DCB      "HASH_RNG_IRQHandler",0
000010  5f524e47
000014  5f495251
000018  48616e64
00001c  6c657200

                          AREA ||i.I2C1_ER_IRQHandler||, CODE, READONLY, ALIGN=2

                  I2C1_ER_IRQHandler PROC
;;;127    }
;;;128    void I2C1_ER_IRQHandler(void)
000000  b510              PUSH     {r4,lr}
;;;129    {
;;;130        printf("I2C1_ER_IRQHandler");
000002  a002              ADR      r0,|L39.12|
000004  f7fffffe          BL       __2printf
;;;131    }
000008  bd10              POP      {r4,pc}
;;;132    void I2C2_EV_IRQHandler(void)
                          ENDP

00000a  0000              DCW      0x0000
                  |L39.12|
00000c  49324331          DCB      "I2C1_ER_IRQHandler",0
000010  5f45525f
000014  49525148
000018  616e646c
00001c  657200  
00001f  00                DCB      0

                          AREA ||i.I2C1_EV_IRQHandler||, CODE, READONLY, ALIGN=2

                  I2C1_EV_IRQHandler PROC
;;;123    }
;;;124    void I2C1_EV_IRQHandler(void)
000000  b510              PUSH     {r4,lr}
;;;125    {
;;;126        printf("I2C1_EV_IRQHandler");
000002  a002              ADR      r0,|L40.12|
000004  f7fffffe          BL       __2printf
;;;127    }
000008  bd10              POP      {r4,pc}
;;;128    void I2C1_ER_IRQHandler(void)
                          ENDP

00000a  0000              DCW      0x0000
                  |L40.12|
00000c  49324331          DCB      "I2C1_EV_IRQHandler",0
000010  5f45565f
000014  49525148
000018  616e646c
00001c  657200  
00001f  00                DCB      0

                          AREA ||i.I2C2_ER_IRQHandler||, CODE, READONLY, ALIGN=2

                  I2C2_ER_IRQHandler PROC
;;;135    }
;;;136    void I2C2_ER_IRQHandler(void)
000000  b510              PUSH     {r4,lr}
;;;137    {
;;;138        printf("I2C2_ER_IRQHandler");
000002  a002              ADR      r0,|L41.12|
000004  f7fffffe          BL       __2printf
;;;139    }
000008  bd10              POP      {r4,pc}
;;;140    void SPI1_IRQHandler(void)
                          ENDP

00000a  0000              DCW      0x0000
                  |L41.12|
00000c  49324332          DCB      "I2C2_ER_IRQHandler",0
000010  5f45525f
000014  49525148
000018  616e646c
00001c  657200  
00001f  00                DCB      0

                          AREA ||i.I2C2_EV_IRQHandler||, CODE, READONLY, ALIGN=2

                  I2C2_EV_IRQHandler PROC
;;;131    }
;;;132    void I2C2_EV_IRQHandler(void)
000000  b510              PUSH     {r4,lr}
;;;133    {
;;;134        printf("I2C2_EV_IRQHandler");
000002  a002              ADR      r0,|L42.12|
000004  f7fffffe          BL       __2printf
;;;135    }
000008  bd10              POP      {r4,pc}
;;;136    void I2C2_ER_IRQHandler(void)
                          ENDP

00000a  0000              DCW      0x0000
                  |L42.12|
00000c  49324332          DCB      "I2C2_EV_IRQHandler",0
000010  5f45565f
000014  49525148
000018  616e646c
00001c  657200  
00001f  00                DCB      0

                          AREA ||i.I2C3_ER_IRQHandler||, CODE, READONLY, ALIGN=2

                  I2C3_ER_IRQHandler PROC
;;;291    }
;;;292    void I2C3_ER_IRQHandler(void)
000000  b510              PUSH     {r4,lr}
;;;293    {
;;;294        printf("I2C3_ER_IRQHandler");
000002  a002              ADR      r0,|L43.12|
000004  f7fffffe          BL       __2printf
;;;295    }
000008  bd10              POP      {r4,pc}
;;;296    void OTG_HS_EP1_OUT_IRQHandler(void)
                          ENDP

00000a  0000              DCW      0x0000
                  |L43.12|
00000c  49324333          DCB      "I2C3_ER_IRQHandler",0
000010  5f45525f
000014  49525148
000018  616e646c
00001c  657200  
00001f  00                DCB      0

                          AREA ||i.I2C3_EV_IRQHandler||, CODE, READONLY, ALIGN=2

                  I2C3_EV_IRQHandler PROC
;;;287    }
;;;288    void I2C3_EV_IRQHandler(void)
000000  b510              PUSH     {r4,lr}
;;;289    {
;;;290        printf("I2C3_EV_IRQHandler");
000002  a002              ADR      r0,|L44.12|
000004  f7fffffe          BL       __2printf
;;;291    }
000008  bd10              POP      {r4,pc}
;;;292    void I2C3_ER_IRQHandler(void)
                          ENDP

00000a  0000              DCW      0x0000
                  |L44.12|
00000c  49324333          DCB      "I2C3_EV_IRQHandler",0
000010  5f45565f
000014  49525148
000018  616e646c
00001c  657200  
00001f  00                DCB      0

                          AREA ||i.OTG_FS_IRQHandler||, CODE, READONLY, ALIGN=2

                  OTG_FS_IRQHandler PROC
;;;267    }
;;;268    void OTG_FS_IRQHandler(void)
000000  b510              PUSH     {r4,lr}
;;;269    {
;;;270        printf("OTG_FS_IRQHandler");
000002  a002              ADR      r0,|L45.12|
000004  f7fffffe          BL       __2printf
;;;271    }
000008  bd10              POP      {r4,pc}
;;;272    void DMA2_Stream5_IRQHandler(void)
                          ENDP

00000a  0000              DCW      0x0000
                  |L45.12|
00000c  4f54475f          DCB      "OTG_FS_IRQHandler",0
000010  46535f49
000014  52514861
000018  6e646c65
00001c  7200    
00001e  00                DCB      0
00001f  00                DCB      0

                          AREA ||i.OTG_FS_WKUP_IRQHandler||, CODE, READONLY, ALIGN=2

                  OTG_FS_WKUP_IRQHandler PROC
;;;167    }
;;;168    void OTG_FS_WKUP_IRQHandler(void)
000000  b510              PUSH     {r4,lr}
;;;169    {
;;;170        printf("OTG_FS_WKUP_IRQHandler");
000002  a002              ADR      r0,|L46.12|
000004  f7fffffe          BL       __2printf
;;;171    }
000008  bd10              POP      {r4,pc}
;;;172    void TIM8_BRK_TIM12_IRQHandler(void)
                          ENDP

00000a  0000              DCW      0x0000
                  |L46.12|
00000c  4f54475f          DCB      "OTG_FS_WKUP_IRQHandler",0
000010  46535f57
000014  4b55505f
000018  49525148
00001c  616e646c
000020  657200  
000023  00                DCB      0

                          AREA ||i.OTG_HS_EP1_IN_IRQHandler||, CODE, READONLY, ALIGN=2

                  OTG_HS_EP1_IN_IRQHandler PROC
;;;299    }
;;;300    void OTG_HS_EP1_IN_IRQHandler(void)
000000  b510              PUSH     {r4,lr}
;;;301    {
;;;302        printf("OTG_HS_EP1_IN_IRQHandler");
000002  a002              ADR      r0,|L47.12|
000004  f7fffffe          BL       __2printf
;;;303    }
000008  bd10              POP      {r4,pc}
;;;304    void OTG_HS_WKUP_IRQHandler(void)
                          ENDP

00000a  0000              DCW      0x0000
                  |L47.12|
00000c  4f54475f          DCB      "OTG_HS_EP1_IN_IRQHandler",0
000010  48535f45
000014  50315f49
000018  4e5f4952
00001c  5148616e
000020  646c6572
000024  00      
000025  00                DCB      0
000026  00                DCB      0
000027  00                DCB      0

                          AREA ||i.OTG_HS_EP1_OUT_IRQHandler||, CODE, READONLY, ALIGN=2

                  OTG_HS_EP1_OUT_IRQHandler PROC
;;;295    }
;;;296    void OTG_HS_EP1_OUT_IRQHandler(void)
000000  b510              PUSH     {r4,lr}
;;;297    {
;;;298        printf("OTG_HS_EP1_OUT_IRQHandler");
000002  a002              ADR      r0,|L48.12|
000004  f7fffffe          BL       __2printf
;;;299    }
000008  bd10              POP      {r4,pc}
;;;300    void OTG_HS_EP1_IN_IRQHandler(void)
                          ENDP

00000a  0000              DCW      0x0000
                  |L48.12|
00000c  4f54475f          DCB      "OTG_HS_EP1_OUT_IRQHandler",0
000010  48535f45
000014  50315f4f
000018  55545f49
00001c  52514861
000020  6e646c65
000024  7200    
000026  00                DCB      0
000027  00                DCB      0

                          AREA ||i.OTG_HS_IRQHandler||, CODE, READONLY, ALIGN=2

                  OTG_HS_IRQHandler PROC
;;;307    }
;;;308    void OTG_HS_IRQHandler(void)
000000  b510              PUSH     {r4,lr}
;;;309    {
;;;310        printf("OTG_HS_IRQHandler");
000002  a002              ADR      r0,|L49.12|
000004  f7fffffe          BL       __2printf
;;;311    }
000008  bd10              POP      {r4,pc}
;;;312    void DCMI_IRQHandler(void)
                          ENDP

00000a  0000              DCW      0x0000
                  |L49.12|
00000c  4f54475f          DCB      "OTG_HS_IRQHandler",0
000010  48535f49
000014  52514861
000018  6e646c65
00001c  7200    
00001e  00                DCB      0
00001f  00                DCB      0

                          AREA ||i.OTG_HS_WKUP_IRQHandler||, CODE, READONLY, ALIGN=2

                  OTG_HS_WKUP_IRQHandler PROC
;;;303    }
;;;304    void OTG_HS_WKUP_IRQHandler(void)
000000  b510              PUSH     {r4,lr}
;;;305    {
;;;306        printf("OTG_HS_WKUP_IRQHandler");
000002  a002              ADR      r0,|L50.12|
000004  f7fffffe          BL       __2printf
;;;307    }
000008  bd10              POP      {r4,pc}
;;;308    void OTG_HS_IRQHandler(void)
                          ENDP

00000a  0000              DCW      0x0000
                  |L50.12|
00000c  4f54475f          DCB      "OTG_HS_WKUP_IRQHandler",0
000010  48535f57
000014  4b55505f
000018  49525148
00001c  616e646c
000020  657200  
000023  00                DCB      0

                          AREA ||i.PVD_IRQHandler||, CODE, READONLY, ALIGN=2

                  PVD_IRQHandler PROC
;;;7      }
;;;8      void PVD_IRQHandler(void)
000000  b510              PUSH     {r4,lr}
;;;9      {
;;;10         printf("PVD_IRQHandler");
000002  a002              ADR      r0,|L51.12|
000004  f7fffffe          BL       __2printf
;;;11     }
000008  bd10              POP      {r4,pc}
;;;12     void TAMP_STAMP_IRQHandler(void)
                          ENDP

00000a  0000              DCW      0x0000
                  |L51.12|
00000c  5056445f          DCB      "PVD_IRQHandler",0
000010  49525148
000014  616e646c
000018  657200  
00001b  00                DCB      0

                          AREA ||i.RCC_IRQHandler||, CODE, READONLY, ALIGN=2

                  RCC_IRQHandler PROC
;;;23     }
;;;24     void RCC_IRQHandler(void)
000000  b510              PUSH     {r4,lr}
;;;25     {
;;;26         printf("RCC_IRQHandler");
000002  a002              ADR      r0,|L52.12|
000004  f7fffffe          BL       __2printf
;;;27     }
000008  bd10              POP      {r4,pc}
;;;28     void EXTI0_IRQHandler(void)
                          ENDP

00000a  0000              DCW      0x0000
                  |L52.12|
00000c  5243435f          DCB      "RCC_IRQHandler",0
000010  49525148
000014  616e646c
000018  657200  
00001b  00                DCB      0

                          AREA ||i.RTC_Alarm_IRQHandler||, CODE, READONLY, ALIGN=2

                  RTC_Alarm_IRQHandler PROC
;;;163    }
;;;164    void RTC_Alarm_IRQHandler(void)
000000  b510              PUSH     {r4,lr}
;;;165    {
;;;166        printf("RTC_Alarm_IRQHandler");
000002  a002              ADR      r0,|L53.12|
000004  f7fffffe          BL       __2printf
;;;167    }
000008  bd10              POP      {r4,pc}
;;;168    void OTG_FS_WKUP_IRQHandler(void)
                          ENDP

00000a  0000              DCW      0x0000
                  |L53.12|
00000c  5254435f          DCB      "RTC_Alarm_IRQHandler",0
000010  416c6172
000014  6d5f4952
000018  5148616e
00001c  646c6572
000020  00      
000021  00                DCB      0
000022  00                DCB      0
000023  00                DCB      0

                          AREA ||i.RTC_WKUP_IRQHandler||, CODE, READONLY, ALIGN=2

                  RTC_WKUP_IRQHandler PROC
;;;15     }
;;;16     void RTC_WKUP_IRQHandler(void)
000000  b510              PUSH     {r4,lr}
;;;17     {
;;;18         printf("RTC_WKUP_IRQHandler");
000002  a002              ADR      r0,|L54.12|
000004  f7fffffe          BL       __2printf
;;;19     }
000008  bd10              POP      {r4,pc}
;;;20     void FLASH_IRQHandler(void)
                          ENDP

00000a  0000              DCW      0x0000
                  |L54.12|
00000c  5254435f          DCB      "RTC_WKUP_IRQHandler",0
000010  574b5550
000014  5f495251
000018  48616e64
00001c  6c657200

                          AREA ||i.SDIO_IRQHandler||, CODE, READONLY, ALIGN=2

                  SDIO_IRQHandler PROC
;;;195    }
;;;196    void SDIO_IRQHandler(void)
000000  b510              PUSH     {r4,lr}
;;;197    {
;;;198        printf("SDIO_IRQHandler");
000002  a002              ADR      r0,|L55.12|
000004  f7fffffe          BL       __2printf
;;;199    }
000008  bd10              POP      {r4,pc}
;;;200    void TIM5_IRQHandler(void)
                          ENDP

00000a  0000              DCW      0x0000
                  |L55.12|
00000c  5344494f          DCB      "SDIO_IRQHandler",0
000010  5f495251
000014  48616e64
000018  6c657200

                          AREA ||i.SPI1_IRQHandler||, CODE, READONLY, ALIGN=2

                  SPI1_IRQHandler PROC
;;;139    }
;;;140    void SPI1_IRQHandler(void)
000000  b510              PUSH     {r4,lr}
;;;141    {
;;;142        printf("I2C2_ER_IRQHandler");
000002  a002              ADR      r0,|L56.12|
000004  f7fffffe          BL       __2printf
;;;143    }
000008  bd10              POP      {r4,pc}
;;;144    void SPI2_IRQHandler(void)
                          ENDP

00000a  0000              DCW      0x0000
                  |L56.12|
00000c  49324332          DCB      "I2C2_ER_IRQHandler",0
000010  5f45525f
000014  49525148
000018  616e646c
00001c  657200  
00001f  00                DCB      0

                          AREA ||i.SPI2_IRQHandler||, CODE, READONLY, ALIGN=2

                  SPI2_IRQHandler PROC
;;;143    }
;;;144    void SPI2_IRQHandler(void)
000000  b510              PUSH     {r4,lr}
;;;145    {
;;;146        printf("SPI2_IRQHandler");
000002  a002              ADR      r0,|L57.12|
000004  f7fffffe          BL       __2printf
;;;147    }
000008  bd10              POP      {r4,pc}
;;;148    void USART1_IRQHandler(void)
                          ENDP

00000a  0000              DCW      0x0000
                  |L57.12|
00000c  53504932          DCB      "SPI2_IRQHandler",0
000010  5f495251
000014  48616e64
000018  6c657200

                          AREA ||i.SPI3_IRQHandler||, CODE, READONLY, ALIGN=2

                  SPI3_IRQHandler PROC
;;;203    }
;;;204    void SPI3_IRQHandler(void)
000000  b510              PUSH     {r4,lr}
;;;205    {
;;;206        printf("SPI3_IRQHandler");
000002  a002              ADR      r0,|L58.12|
000004  f7fffffe          BL       __2printf
;;;207    }
000008  bd10              POP      {r4,pc}
;;;208    void UART4_IRQHandler(void)
                          ENDP

00000a  0000              DCW      0x0000
                  |L58.12|
00000c  53504933          DCB      "SPI3_IRQHandler",0
000010  5f495251
000014  48616e64
000018  6c657200

                          AREA ||i.TAMP_STAMP_IRQHandler||, CODE, READONLY, ALIGN=2

                  TAMP_STAMP_IRQHandler PROC
;;;11     }
;;;12     void TAMP_STAMP_IRQHandler(void)
000000  b510              PUSH     {r4,lr}
;;;13     {
;;;14         printf("TAMP_STAMP_IRQHandler");
000002  a002              ADR      r0,|L59.12|
000004  f7fffffe          BL       __2printf
;;;15     }
000008  bd10              POP      {r4,pc}
;;;16     void RTC_WKUP_IRQHandler(void)
                          ENDP

00000a  0000              DCW      0x0000
                  |L59.12|
00000c  54414d50          DCB      "TAMP_STAMP_IRQHandler",0
000010  5f535441
000014  4d505f49
000018  52514861
00001c  6e646c65
000020  7200    
000022  00                DCB      0
000023  00                DCB      0

                          AREA ||i.TIM1_BRK_TIM9_IRQHandler||, CODE, READONLY, ALIGN=2

                  TIM1_BRK_TIM9_IRQHandler PROC
;;;99     }
;;;100    void TIM1_BRK_TIM9_IRQHandler(void)
000000  b510              PUSH     {r4,lr}
;;;101    {
;;;102        printf("TIM1_BRK_TIM9_IRQHandler");
000002  a002              ADR      r0,|L60.12|
000004  f7fffffe          BL       __2printf
;;;103    }
000008  bd10              POP      {r4,pc}
;;;104    void TIM1_UP_TIM10_IRQHandler(void)
                          ENDP

00000a  0000              DCW      0x0000
                  |L60.12|
00000c  54494d31          DCB      "TIM1_BRK_TIM9_IRQHandler",0
000010  5f42524b
000014  5f54494d
000018  395f4952
00001c  5148616e
000020  646c6572
000024  00      
000025  00                DCB      0
000026  00                DCB      0
000027  00                DCB      0

                          AREA ||i.TIM1_CC_IRQHandler||, CODE, READONLY, ALIGN=2

                  TIM1_CC_IRQHandler PROC
;;;111    }
;;;112    void TIM1_CC_IRQHandler(void)
000000  b510              PUSH     {r4,lr}
;;;113    {
;;;114        printf("TIM1_CC_IRQHandler");
000002  a002              ADR      r0,|L61.12|
000004  f7fffffe          BL       __2printf
;;;115    }
000008  bd10              POP      {r4,pc}
;;;116    void TIM3_IRQHandler(void)
                          ENDP

00000a  0000              DCW      0x0000
                  |L61.12|
00000c  54494d31          DCB      "TIM1_CC_IRQHandler",0
000010  5f43435f
000014  49525148
000018  616e646c
00001c  657200  
00001f  00                DCB      0

                          AREA ||i.TIM1_TRG_COM_TIM11_IRQHandler||, CODE, READONLY, ALIGN=2

                  TIM1_TRG_COM_TIM11_IRQHandler PROC
;;;107    }
;;;108    void TIM1_TRG_COM_TIM11_IRQHandler(void)
000000  b510              PUSH     {r4,lr}
;;;109    {
;;;110        printf("TIM1_TRG_COM_TIM11_IRQHandler");
000002  a002              ADR      r0,|L62.12|
000004  f7fffffe          BL       __2printf
;;;111    }
000008  bd10              POP      {r4,pc}
;;;112    void TIM1_CC_IRQHandler(void)
                          ENDP

00000a  0000              DCW      0x0000
                  |L62.12|
00000c  54494d31          DCB      "TIM1_TRG_COM_TIM11_IRQHandler",0
000010  5f545247
000014  5f434f4d
000018  5f54494d
00001c  31315f49
000020  52514861
000024  6e646c65
000028  7200    
00002a  00                DCB      0
00002b  00                DCB      0

                          AREA ||i.TIM1_UP_TIM10_IRQHandler||, CODE, READONLY, ALIGN=2

                  TIM1_UP_TIM10_IRQHandler PROC
;;;103    }
;;;104    void TIM1_UP_TIM10_IRQHandler(void)
000000  b510              PUSH     {r4,lr}
;;;105    {
;;;106        printf("TIM1_UP_TIM10_IRQHandler");
000002  a002              ADR      r0,|L63.12|
000004  f7fffffe          BL       __2printf
;;;107    }
000008  bd10              POP      {r4,pc}
;;;108    void TIM1_TRG_COM_TIM11_IRQHandler(void)
                          ENDP

00000a  0000              DCW      0x0000
                  |L63.12|
00000c  54494d31          DCB      "TIM1_UP_TIM10_IRQHandler",0
000010  5f55505f
000014  54494d31
000018  305f4952
00001c  5148616e
000020  646c6572
000024  00      
000025  00                DCB      0
000026  00                DCB      0
000027  00                DCB      0

                          AREA ||i.TIM3_IRQHandler||, CODE, READONLY, ALIGN=2

                  TIM3_IRQHandler PROC
;;;115    }
;;;116    void TIM3_IRQHandler(void)
000000  b510              PUSH     {r4,lr}
;;;117    {
;;;118        printf("TIM3_IRQHandler");
000002  a002              ADR      r0,|L64.12|
000004  f7fffffe          BL       __2printf
;;;119    }
000008  bd10              POP      {r4,pc}
;;;120    void TIM4_IRQHandler(void)
                          ENDP

00000a  0000              DCW      0x0000
                  |L64.12|
00000c  54494d33          DCB      "TIM3_IRQHandler",0
000010  5f495251
000014  48616e64
000018  6c657200

                          AREA ||i.TIM4_IRQHandler||, CODE, READONLY, ALIGN=2

                  TIM4_IRQHandler PROC
;;;119    }
;;;120    void TIM4_IRQHandler(void)
000000  b510              PUSH     {r4,lr}
;;;121    {
;;;122        printf("TIM4_IRQHandler");
000002  a002              ADR      r0,|L65.12|
000004  f7fffffe          BL       __2printf
;;;123    }
000008  bd10              POP      {r4,pc}
;;;124    void I2C1_EV_IRQHandler(void)
                          ENDP

00000a  0000              DCW      0x0000
                  |L65.12|
00000c  54494d34          DCB      "TIM4_IRQHandler",0
000010  5f495251
000014  48616e64
000018  6c657200

                          AREA ||i.TIM5_IRQHandler||, CODE, READONLY, ALIGN=2

                  TIM5_IRQHandler PROC
;;;199    }
;;;200    void TIM5_IRQHandler(void)
000000  b510              PUSH     {r4,lr}
;;;201    {
;;;202        printf("TIM5_IRQHandler");
000002  a002              ADR      r0,|L66.12|
000004  f7fffffe          BL       __2printf
;;;203    }
000008  bd10              POP      {r4,pc}
;;;204    void SPI3_IRQHandler(void)
                          ENDP

00000a  0000              DCW      0x0000
                  |L66.12|
00000c  54494d35          DCB      "TIM5_IRQHandler",0
000010  5f495251
000014  48616e64
000018  6c657200

                          AREA ||i.TIM6_DAC_IRQHandler||, CODE, READONLY, ALIGN=2

                  TIM6_DAC_IRQHandler PROC
;;;215    }
;;;216    void TIM6_DAC_IRQHandler(void)
000000  b510              PUSH     {r4,lr}
;;;217    {
;;;218        printf("TIM6_DAC_IRQHandler");
000002  a002              ADR      r0,|L67.12|
000004  f7fffffe          BL       __2printf
;;;219    }
000008  bd10              POP      {r4,pc}
;;;220    void TIM7_IRQHandler(void)
                          ENDP

00000a  0000              DCW      0x0000
                  |L67.12|
00000c  54494d36          DCB      "TIM6_DAC_IRQHandler",0
000010  5f444143
000014  5f495251
000018  48616e64
00001c  6c657200

                          AREA ||i.TIM7_IRQHandler||, CODE, READONLY, ALIGN=2

                  TIM7_IRQHandler PROC
;;;219    }
;;;220    void TIM7_IRQHandler(void)
000000  b510              PUSH     {r4,lr}
;;;221    {
;;;222        printf("TIM7_IRQHandler");
000002  a002              ADR      r0,|L68.12|
000004  f7fffffe          BL       __2printf
;;;223    }
000008  bd10              POP      {r4,pc}
;;;224    void DMA2_Stream0_IRQHandler(void)
                          ENDP

00000a  0000              DCW      0x0000
                  |L68.12|
00000c  54494d37          DCB      "TIM7_IRQHandler",0
000010  5f495251
000014  48616e64
000018  6c657200

                          AREA ||i.TIM8_BRK_TIM12_IRQHandler||, CODE, READONLY, ALIGN=2

                  TIM8_BRK_TIM12_IRQHandler PROC
;;;171    }
;;;172    void TIM8_BRK_TIM12_IRQHandler(void)
000000  b510              PUSH     {r4,lr}
;;;173    {
;;;174        printf("TIM8_BRK_TIM12_IRQHandler");
000002  a002              ADR      r0,|L69.12|
000004  f7fffffe          BL       __2printf
;;;175    }
000008  bd10              POP      {r4,pc}
;;;176    void TIM8_UP_TIM13_IRQHandler(void)
                          ENDP

00000a  0000              DCW      0x0000
                  |L69.12|
00000c  54494d38          DCB      "TIM8_BRK_TIM12_IRQHandler",0
000010  5f42524b
000014  5f54494d
000018  31325f49
00001c  52514861
000020  6e646c65
000024  7200    
000026  00                DCB      0
000027  00                DCB      0

                          AREA ||i.TIM8_CC_IRQHandler||, CODE, READONLY, ALIGN=2

                  TIM8_CC_IRQHandler PROC
;;;183    }
;;;184    void TIM8_CC_IRQHandler(void)
000000  b510              PUSH     {r4,lr}
;;;185    {
;;;186        printf("TIM8_CC_IRQHandler");
000002  a002              ADR      r0,|L70.12|
000004  f7fffffe          BL       __2printf
;;;187    }
000008  bd10              POP      {r4,pc}
;;;188    void DMA1_Stream7_IRQHandler(void)
                          ENDP

00000a  0000              DCW      0x0000
                  |L70.12|
00000c  54494d38          DCB      "TIM8_CC_IRQHandler",0
000010  5f43435f
000014  49525148
000018  616e646c
00001c  657200  
00001f  00                DCB      0

                          AREA ||i.TIM8_TRG_COM_TIM14_IRQHandler||, CODE, READONLY, ALIGN=2

                  TIM8_TRG_COM_TIM14_IRQHandler PROC
;;;179    }
;;;180    void TIM8_TRG_COM_TIM14_IRQHandler(void)
000000  b510              PUSH     {r4,lr}
;;;181    {
;;;182        printf("TIM8_TRG_COM_TIM14_IRQHandler");
000002  a002              ADR      r0,|L71.12|
000004  f7fffffe          BL       __2printf
;;;183    }
000008  bd10              POP      {r4,pc}
;;;184    void TIM8_CC_IRQHandler(void)
                          ENDP

00000a  0000              DCW      0x0000
                  |L71.12|
00000c  54494d38          DCB      "TIM8_TRG_COM_TIM14_IRQHandler",0
000010  5f545247
000014  5f434f4d
000018  5f54494d
00001c  31345f49
000020  52514861
000024  6e646c65
000028  7200    
00002a  00                DCB      0
00002b  00                DCB      0

                          AREA ||i.TIM8_UP_TIM13_IRQHandler||, CODE, READONLY, ALIGN=2

                  TIM8_UP_TIM13_IRQHandler PROC
;;;175    }
;;;176    void TIM8_UP_TIM13_IRQHandler(void)
000000  b510              PUSH     {r4,lr}
;;;177    {
;;;178        printf("TIM8_UP_TIM13_IRQHandler");
000002  a002              ADR      r0,|L72.12|
000004  f7fffffe          BL       __2printf
;;;179    }
000008  bd10              POP      {r4,pc}
;;;180    void TIM8_TRG_COM_TIM14_IRQHandler(void)
                          ENDP

00000a  0000              DCW      0x0000
                  |L72.12|
00000c  54494d38          DCB      "TIM8_UP_TIM13_IRQHandler",0
000010  5f55505f
000014  54494d31
000018  335f4952
00001c  5148616e
000020  646c6572
000024  00      
000025  00                DCB      0
000026  00                DCB      0
000027  00                DCB      0

                          AREA ||i.UART4_IRQHandler||, CODE, READONLY, ALIGN=2

                  UART4_IRQHandler PROC
;;;207    }
;;;208    void UART4_IRQHandler(void)
000000  b510              PUSH     {r4,lr}
;;;209    {
;;;210        printf("UART4_IRQHandler");
000002  a002              ADR      r0,|L73.12|
000004  f7fffffe          BL       __2printf
;;;211    }
000008  bd10              POP      {r4,pc}
;;;212    void UART5_IRQHandler(void)
                          ENDP

00000a  0000              DCW      0x0000
                  |L73.12|
00000c  55415254          DCB      "UART4_IRQHandler",0
000010  345f4952
000014  5148616e
000018  646c6572
00001c  00      
00001d  00                DCB      0
00001e  00                DCB      0
00001f  00                DCB      0

                          AREA ||i.UART5_IRQHandler||, CODE, READONLY, ALIGN=2

                  UART5_IRQHandler PROC
;;;211    }
;;;212    void UART5_IRQHandler(void)
000000  b510              PUSH     {r4,lr}
;;;213    {
;;;214        printf("UART5_IRQHandler");
000002  a002              ADR      r0,|L74.12|
000004  f7fffffe          BL       __2printf
;;;215    }
000008  bd10              POP      {r4,pc}
;;;216    void TIM6_DAC_IRQHandler(void)
                          ENDP

00000a  0000              DCW      0x0000
                  |L74.12|
00000c  55415254          DCB      "UART5_IRQHandler",0
000010  355f4952
000014  5148616e
000018  646c6572
00001c  00      
00001d  00                DCB      0
00001e  00                DCB      0
00001f  00                DCB      0

                          AREA ||i.USART1_IRQHandler||, CODE, READONLY, ALIGN=2

                  USART1_IRQHandler PROC
;;;147    }
;;;148    void USART1_IRQHandler(void)
000000  b510              PUSH     {r4,lr}
;;;149    {
;;;150        printf("USART1_IRQHandler");
000002  a002              ADR      r0,|L75.12|
000004  f7fffffe          BL       __2printf
;;;151    }
000008  bd10              POP      {r4,pc}
;;;152    void USART2_IRQHandler(void)
                          ENDP

00000a  0000              DCW      0x0000
                  |L75.12|
00000c  55534152          DCB      "USART1_IRQHandler",0
000010  54315f49
000014  52514861
000018  6e646c65
00001c  7200    
00001e  00                DCB      0
00001f  00                DCB      0

                          AREA ||i.USART2_IRQHandler||, CODE, READONLY, ALIGN=2

                  USART2_IRQHandler PROC
;;;151    }
;;;152    void USART2_IRQHandler(void)
000000  b510              PUSH     {r4,lr}
;;;153    {
;;;154        printf("USART2_IRQHandler");
000002  a002              ADR      r0,|L76.12|
000004  f7fffffe          BL       __2printf
;;;155    }
000008  bd10              POP      {r4,pc}
;;;156    void USART3_IRQHandler(void)
                          ENDP

00000a  0000              DCW      0x0000
                  |L76.12|
00000c  55534152          DCB      "USART2_IRQHandler",0
000010  54325f49
000014  52514861
000018  6e646c65
00001c  7200    
00001e  00                DCB      0
00001f  00                DCB      0

                          AREA ||i.USART3_IRQHandler||, CODE, READONLY, ALIGN=2

                  USART3_IRQHandler PROC
;;;155    }
;;;156    void USART3_IRQHandler(void)
000000  b510              PUSH     {r4,lr}
;;;157    {
;;;158        printf("USART3_IRQHandler");
000002  a002              ADR      r0,|L77.12|
000004  f7fffffe          BL       __2printf
;;;159    }
000008  bd10              POP      {r4,pc}
;;;160    void EXTI15_10_IRQHandler(void)
                          ENDP

00000a  0000              DCW      0x0000
                  |L77.12|
00000c  55534152          DCB      "USART3_IRQHandler",0
000010  54335f49
000014  52514861
000018  6e646c65
00001c  7200    
00001e  00                DCB      0
00001f  00                DCB      0

                          AREA ||i.USART6_IRQHandler||, CODE, READONLY, ALIGN=2

                  USART6_IRQHandler PROC
;;;283    }
;;;284    void USART6_IRQHandler(void)
000000  b510              PUSH     {r4,lr}
;;;285    {
;;;286        printf("USART6_IRQHandler");
000002  a002              ADR      r0,|L78.12|
000004  f7fffffe          BL       __2printf
;;;287    }
000008  bd10              POP      {r4,pc}
;;;288    void I2C3_EV_IRQHandler(void)
                          ENDP

00000a  0000              DCW      0x0000
                  |L78.12|
00000c  55534152          DCB      "USART6_IRQHandler",0
000010  54365f49
000014  52514861
000018  6e646c65
00001c  7200    
00001e  00                DCB      0
00001f  00                DCB      0

                          AREA ||i.WWDG_IRQHandler||, CODE, READONLY, ALIGN=2

                  WWDG_IRQHandler PROC
;;;3      
;;;4      void WWDG_IRQHandler(void)
000000  b510              PUSH     {r4,lr}
;;;5      {
;;;6          printf("WWDG_IRQHandler");
000002  a002              ADR      r0,|L79.12|
000004  f7fffffe          BL       __2printf
;;;7      }
000008  bd10              POP      {r4,pc}
;;;8      void PVD_IRQHandler(void)
                          ENDP

00000a  0000              DCW      0x0000
                  |L79.12|
00000c  57574447          DCB      "WWDG_IRQHandler",0
000010  5f495251
000014  48616e64
000018  6c657200
